target datalayout = "e-m:e-p270:32:32-p271:32:32-p272:64:64-i64:64-i128:128-f80:128-n8:16:32:64-S128"
target triple = "x86_64-pc-linux-gnu"

%struct.grpc_slice = type { ptr, %"union.grpc_slice::grpc_slice_data" }
%"union.grpc_slice::grpc_slice_data" = type { %"struct.grpc_slice::grpc_slice_data::grpc_slice_refcounted", [8 x i8] }
%"struct.grpc_slice::grpc_slice_data::grpc_slice_refcounted" = type { i64, ptr }
%"struct.grpc_slice::grpc_slice_data::grpc_slice_inlined" = type { i8, [23 x i8] }
%struct.grpc_slice_refcount = type { %"struct.std::atomic", ptr }
%"struct.std::atomic" = type { %"struct.std::__atomic_base" }
%"struct.std::__atomic_base" = type { i64 }
%class.anon = type { i8 }

; Function Attrs: mustprogress nounwind uwtable
define linkonce_odr void @_ZNSt13__atomic_baseImEC2Em(ptr noundef nonnull align 8 dereferenceable(8) %0, i64 noundef %1) unnamed_addr #7 comdat align 2 {
  %3 = alloca ptr, align 8
  %4 = alloca i64, align 8
  store ptr %0, ptr %3, align 8, !tbaa !61
  store i64 %1, ptr %4, align 8, !tbaa !12
  %5 = load ptr, ptr %3, align 8
  %6 = getelementptr inbounds nuw %"struct.std::__atomic_base", ptr %5, i32 0, i32 0
  %7 = load i64, ptr %4, align 8, !tbaa !12
  store i64 %7, ptr %6, align 8, !tbaa !63
  ret void
}

; Function Attrs: mustprogress nounwind uwtable
define linkonce_odr void @_ZNSt6atomicImEC2Em(ptr noundef nonnull align 8 dereferenceable(8) %0, i64 noundef %1) unnamed_addr #7 comdat align 2 {
  %3 = alloca ptr, align 8
  %4 = alloca i64, align 8
  store ptr %0, ptr %3, align 8, !tbaa !59
  store i64 %1, ptr %4, align 8, !tbaa !12
  %5 = load ptr, ptr %3, align 8
  %6 = load i64, ptr %4, align 8, !tbaa !12
  call void @_ZNSt13__atomic_baseImEC2Em(ptr noundef nonnull align 8 dereferenceable(8) %5, i64 noundef %6) #3
  ret void
}

; Function Attrs: mustprogress nounwind uwtable
define linkonce_odr void @_ZN19grpc_slice_refcountC2EPFvPS_E(ptr noundef nonnull align 8 dereferenceable(16) %0, ptr noundef %1) unnamed_addr #7 comdat align 2 {
  %3 = alloca ptr, align 8
  %4 = alloca ptr, align 8
  store ptr %0, ptr %3, align 8, !tbaa !18
  store ptr %1, ptr %4, align 8, !tbaa !14
  %5 = load ptr, ptr %3, align 8
  %6 = getelementptr inbounds nuw %struct.grpc_slice_refcount, ptr %5, i32 0, i32 0
  call void @_ZNSt6atomicImEC2Em(ptr noundef nonnull align 8 dereferenceable(8) %6, i64 noundef 1) #3
  %7 = getelementptr inbounds nuw %struct.grpc_slice_refcount, ptr %5, i32 0, i32 1
  %8 = load ptr, ptr %4, align 8, !tbaa !14
  store ptr %8, ptr %7, align 8, !tbaa !47
  ret void
}

; Function Attrs: inlinehint mustprogress nounwind uwtable
define internal noundef ptr @"_ZZ23grpc_slice_malloc_largeENK3$_0cvPFvP19grpc_slice_refcountEEv"(ptr noundef nonnull align 1 dereferenceable(1) %0) #11 align 2 {
  %2 = alloca ptr, align 8
  store ptr %0, ptr %2, align 8, !tbaa !14
  ret ptr @"_ZZ23grpc_slice_malloc_largeEN3$_08__invokeEP19grpc_slice_refcount"
}

; Function Attrs: mustprogress uwtable
define void @grpc_slice_malloc_large(ptr dead_on_unwind noalias writable sret(%struct.grpc_slice) align 8 %0, i64 noundef %1) #4 {
  %3 = alloca i64, align 8
  %4 = alloca ptr, align 8
  %5 = alloca %class.anon, align 1
  store i64 %1, ptr %3, align 8, !tbaa !12
  call void @llvm.lifetime.start.p0(i64 8, ptr %4) #3
  %6 = load i64, ptr %3, align 8, !tbaa !12
  %7 = add i64 16, %6
  %8 = call noalias noundef nonnull ptr @_Znam(i64 noundef %7) #20
  store ptr %8, ptr %4, align 8, !tbaa !10
  %9 = load ptr, ptr %4, align 8, !tbaa !10
  call void @llvm.lifetime.start.p0(i64 1, ptr %5) #3
  %10 = call noundef ptr @"_ZZ23grpc_slice_malloc_largeENK3$_0cvPFvP19grpc_slice_refcountEEv"(ptr noundef nonnull align 1 dereferenceable(1) %5) #3
  call void @_ZN19grpc_slice_refcountC2EPFvPS_E(ptr noundef nonnull align 8 dereferenceable(16) %9, ptr noundef %10)
  %11 = getelementptr inbounds nuw %struct.grpc_slice, ptr %0, i32 0, i32 0
  store ptr %9, ptr %11, align 8, !tbaa !3
  call void @llvm.lifetime.end.p0(i64 1, ptr %5) #3
  %12 = load ptr, ptr %4, align 8, !tbaa !10
  %13 = getelementptr inbounds nuw i8, ptr %12, i64 16
  %14 = getelementptr inbounds nuw %struct.grpc_slice, ptr %0, i32 0, i32 1
  %15 = getelementptr inbounds nuw %"struct.grpc_slice::grpc_slice_data::grpc_slice_refcounted", ptr %14, i32 0, i32 1
  store ptr %13, ptr %15, align 8, !tbaa !9
  %16 = load i64, ptr %3, align 8, !tbaa !12
  %17 = getelementptr inbounds nuw %struct.grpc_slice, ptr %0, i32 0, i32 1
  %18 = getelementptr inbounds nuw %"struct.grpc_slice::grpc_slice_data::grpc_slice_refcounted", ptr %17, i32 0, i32 0
  store i64 %16, ptr %18, align 8, !tbaa !9
  call void @llvm.lifetime.end.p0(i64 8, ptr %4) #3
  ret void
}

; Function Attrs: mustprogress nounwind uwtable
define internal void @_ZN9grpc_core12slice_detailL10EmptySliceEv(ptr dead_on_unwind noalias writable sret(%struct.grpc_slice) align 8 %0) #7 {
  call void @llvm.memset.p0.i64(ptr align 8 %0, i8 0, i64 32, i1 false)
  ret void
}

; Function Attrs: mustprogress uwtable
define void @grpc_slice_malloc(ptr dead_on_unwind noalias writable sret(%struct.grpc_slice) align 8 %0, i64 noundef %1) #4 {
  %3 = alloca i64, align 8
  store i64 %1, ptr %3, align 8, !tbaa !12
  %4 = load i64, ptr %3, align 8, !tbaa !12
  %5 = icmp ule i64 %4, 23
  br i1 %5, label %6, label %12

6:                                                ; preds = %2
  %7 = getelementptr inbounds nuw %struct.grpc_slice, ptr %0, i32 0, i32 0
  store ptr null, ptr %7, align 8, !tbaa !3
  %8 = load i64, ptr %3, align 8, !tbaa !12
  %9 = trunc i64 %8 to i8
  %10 = getelementptr inbounds nuw %struct.grpc_slice, ptr %0, i32 0, i32 1
  %11 = getelementptr inbounds nuw %"struct.grpc_slice::grpc_slice_data::grpc_slice_inlined", ptr %10, i32 0, i32 0
  store i8 %9, ptr %11, align 8, !tbaa !9
  br label %14

12:                                               ; preds = %2
  %13 = load i64, ptr %3, align 8, !tbaa !12
  call void @grpc_slice_malloc_large(ptr dead_on_unwind writable sret(%struct.grpc_slice) align 8 %0, i64 noundef %13)
  br label %14

14:                                               ; preds = %12, %6
  ret void
}

; Function Attrs: mustprogress uwtable
define void @grpc_empty_slice(ptr dead_on_unwind noalias writable sret(%struct.grpc_slice) align 8 %0) #4 {
  call void @_ZN9grpc_core12slice_detailL10EmptySliceEv(ptr dead_on_unwind writable sret(%struct.grpc_slice) align 8 %0)
  ret void
}

; Function Attrs: mustprogress uwtable
define void @grpc_slice_from_copied_buffer(ptr dead_on_unwind noalias writable sret(%struct.grpc_slice) align 8 %0, ptr noundef %1, i64 noundef %2) #4 {
  %4 = alloca ptr, align 8
  %5 = alloca i64, align 8
  store ptr %1, ptr %4, align 8, !tbaa !10
  store i64 %2, ptr %5, align 8, !tbaa !12
  %6 = load i64, ptr %5, align 8, !tbaa !12
  %7 = icmp eq i64 %6, 0
  br i1 %7, label %8, label %9

8:                                                ; preds = %3
  call void @grpc_empty_slice(ptr dead_on_unwind writable sret(%struct.grpc_slice) align 8 %0)
  br label %26

9:                                                ; preds = %3
  %10 = load i64, ptr %5, align 8, !tbaa !12
  call void @grpc_slice_malloc(ptr dead_on_unwind writable sret(%struct.grpc_slice) align 8 %0, i64 noundef %10)
  %11 = getelementptr inbounds nuw %struct.grpc_slice, ptr %0, i32 0, i32 0
  %12 = load ptr, ptr %11, align 8, !tbaa !3
  %13 = icmp ne ptr %12, null
  br i1 %13, label %14, label %18

14:                                               ; preds = %9
  %15 = getelementptr inbounds nuw %struct.grpc_slice, ptr %0, i32 0, i32 1
  %16 = getelementptr inbounds nuw %"struct.grpc_slice::grpc_slice_data::grpc_slice_refcounted", ptr %15, i32 0, i32 1
  %17 = load ptr, ptr %16, align 8, !tbaa !9
  br label %22

18:                                               ; preds = %9
  %19 = getelementptr inbounds nuw %struct.grpc_slice, ptr %0, i32 0, i32 1
  %20 = getelementptr inbounds nuw %"struct.grpc_slice::grpc_slice_data::grpc_slice_inlined", ptr %19, i32 0, i32 1
  %21 = getelementptr inbounds [23 x i8], ptr %20, i64 0, i64 0
  br label %22

22:                                               ; preds = %18, %14
  %23 = phi ptr [ %17, %14 ], [ %21, %18 ]
  %24 = load ptr, ptr %4, align 8, !tbaa !10
  %25 = load i64, ptr %5, align 8, !tbaa !12
  call void @llvm.memcpy.p0.p0.i64(ptr align 1 %23, ptr align 1 %24, i64 %25, i1 false)
  br label %26

26:                                               ; preds = %22, %8
  ret void
}

; Function Attrs: mustprogress uwtable
define void @grpc_slice_from_copied_string(ptr dead_on_unwind noalias writable sret(%struct.grpc_slice) align 8 %0, ptr noundef %1) #4 {
  %3 = alloca ptr, align 8
  store ptr %1, ptr %3, align 8, !tbaa !10
  %4 = load ptr, ptr %3, align 8, !tbaa !10
  %5 = load ptr, ptr %3, align 8, !tbaa !10
  %6 = call i64 @strlen(ptr noundef %5) #19
  call void @grpc_slice_from_copied_buffer(ptr dead_on_unwind writable sret(%struct.grpc_slice) align 8 %0, ptr noundef %4, i64 noundef %6)
  ret void
}