; Function Attrs: mustprogress uwtable
define void @grpc_slice_from_copied_string(ptr dead_on_unwind noalias writable sret(%struct.grpc_slice) align 8 captures(none) initializes((0, 9)) %0, ptr noundef readonly captures(none) %1) local_unnamed_addr #3 {
  %3 = tail call i64 @strlen(ptr noundef nonnull dereferenceable(1) %1) #29
  tail call void @llvm.experimental.noalias.scope.decl(metadata !55)
  %4 = icmp eq i64 %3, 0
  br i1 %4, label %5, label %6

5:                                                ; preds = %2
  tail call void @llvm.memset.p0.i64(ptr noundef nonnull align 8 dereferenceable(32) %0, i8 0, i64 32, i1 false), !alias.scope !58
  br label %grpc_slice_from_copied_buffer.exit

6:                                                ; preds = %2
  tail call void @llvm.experimental.noalias.scope.decl(metadata !63)
  %7 = icmp ult i64 %3, 24
  br i1 %7, label %8, label %11

8:                                                ; preds = %6
  %9 = trunc nuw nsw i64 %3 to i8
  %10 = getelementptr inbounds nuw i8, ptr %0, i64 8
  store i8 %9, ptr %10, align 8, !tbaa !9, !alias.scope !66
  %.phi.trans.insert.i = getelementptr inbounds nuw i8, ptr %0, i64 16
  %.pre.i = load ptr, ptr %.phi.trans.insert.i, align 8, !alias.scope !55
  br label %grpc_slice_malloc.exit.i

11:                                               ; preds = %6
  tail call void @llvm.experimental.noalias.scope.decl(metadata !67)
  %12 = add i64 %3, 16
  %13 = tail call noalias noundef nonnull ptr @_Znam(i64 noundef %12) #28, !noalias !70
  store i64 1, ptr %13, align 8, !tbaa !20, !noalias !70
  %14 = getelementptr inbounds nuw i8, ptr %13, i64 8
  store ptr @"_ZZ23grpc_slice_malloc_largeEN3$_08__invokeEP19grpc_slice_refcount", ptr %14, align 8, !tbaa !23, !noalias !70
  %15 = getelementptr inbounds nuw i8, ptr %13, i64 16
  %16 = getelementptr inbounds nuw i8, ptr %0, i64 8
  %17 = getelementptr inbounds nuw i8, ptr %0, i64 16
  store ptr %15, ptr %17, align 8, !tbaa !9, !alias.scope !70
  store i64 %3, ptr %16, align 8, !tbaa !9, !alias.scope !70
  br label %grpc_slice_malloc.exit.i

grpc_slice_malloc.exit.i:                         ; preds = %11, %8
  %18 = phi ptr [ %.pre.i, %8 ], [ %15, %11 ]
  %.sink.i.i = phi ptr [ null, %8 ], [ %13, %11 ]
  store ptr %.sink.i.i, ptr %0, align 8, !tbaa !3, !alias.scope !66
  %.not.i = icmp eq ptr %.sink.i.i, null
  %19 = getelementptr inbounds nuw i8, ptr %0, i64 9
  %20 = select i1 %.not.i, ptr %19, ptr %18
  tail call void @llvm.memcpy.p0.p0.i64(ptr align 1 %20, ptr nonnull readonly align 1 %1, i64 %3, i1 false)
  br label %grpc_slice_from_copied_buffer.exit

grpc_slice_from_copied_buffer.exit:               ; preds = %5, %grpc_slice_malloc.exit.i
  ret void
}